target datalayout = "e-m:e-p270:32:32-p271:32:32-p272:64:64-i64:64-i128:128-f80:128-n8:16:32:64-S128"
target triple = "x86_64-pc-linux-gnu"

%"class.cv::Mat" = type { i32, i32, i32, i32, ptr, ptr, ptr, ptr, ptr, ptr, %"struct.cv::MatSize", %"struct.cv::MatStep" }
%"struct.cv::MatSize" = type { ptr }
%"struct.cv::MatStep" = type { ptr, [2 x i64] }
%"class.cv::ximgproc::EdgeAwareInterpolatorImpl" = type { %"class.cv::ximgproc::EdgeAwareInterpolator", i32, i32, i32, ptr, %"class.cv::Mat", %"class.cv::Mat", %"class.cv::Mat", %"class.cv::Mat", float, i32, float, i8, float, float, float, [4 x %"class.cv::RNG"] }
%"class.cv::ximgproc::EdgeAwareInterpolator" = type { %"class.cv::ximgproc::SparseMatchInterpolator" }
%"class.cv::ximgproc::SparseMatchInterpolator" = type { %"class.cv::Algorithm" }
%"class.cv::Algorithm" = type { ptr }
%"class.cv::RNG" = type { i64 }
%"struct.cv::ximgproc::EdgeAwareInterpolatorImpl::GetKNNMatches_ParBody" = type { %"class.cv::ParallelLoopBody", ptr, i32, i32 }
%"class.cv::ParallelLoopBody" = type { ptr }

@_ZTVN2cv16ParallelLoopBodyE = available_externally unnamed_addr constant { [5 x ptr] } { [5 x ptr] [ptr null, ptr @_ZTIN2cv16ParallelLoopBodyE, ptr @_ZN2cv16ParallelLoopBodyD1Ev, ptr @_ZN2cv16ParallelLoopBodyD0Ev, ptr @__cxa_pure_virtual] }, align 8

; Function Attrs: inlinehint mustprogress nounwind uwtable
define linkonce_odr hidden void @_ZN2cv16ParallelLoopBodyC2Ev(ptr noundef nonnull align 8 dereferenceable(8) %0) unnamed_addr #13 comdat align 2 {
  %2 = alloca ptr, align 8
  store ptr %0, ptr %2, align 8, !tbaa !165
  %3 = load ptr, ptr %2, align 8
  store ptr getelementptr inbounds inrange(-16, 24) ({ [5 x ptr] }, ptr @_ZTVN2cv16ParallelLoopBodyE, i32 0, i32 0, i32 2), ptr %3, align 8, !tbaa !31
  ret void
}

; Function Attrs: mustprogress nounwind uwtable
define hidden void @_ZN2cv8ximgproc25EdgeAwareInterpolatorImpl21GetKNNMatches_ParBodyC2ERS1_i(ptr noundef nonnull align 8 dereferenceable(24) %0, ptr noundef nonnull align 8 dereferenceable(480) %1, i32 noundef %2) unnamed_addr #12 align 2 {
  %4 = alloca ptr, align 8
  %5 = alloca ptr, align 8
  %6 = alloca i32, align 4
  store ptr %0, ptr %4, align 8, !tbaa !158
  store ptr %1, ptr %5, align 8, !tbaa !3
  store i32 %2, ptr %6, align 4, !tbaa !41
  %7 = load ptr, ptr %4, align 8
  call void @_ZN2cv16ParallelLoopBodyC2Ev(ptr noundef nonnull align 8 dereferenceable(8) %7) #3
  store ptr getelementptr inbounds inrange(-16, 24) ({ [5 x ptr] }, ptr @_ZTVN2cv8ximgproc25EdgeAwareInterpolatorImpl21GetKNNMatches_ParBodyE, i32 0, i32 0, i32 2), ptr %7, align 8, !tbaa !31
  %8 = getelementptr inbounds nuw %"struct.cv::ximgproc::EdgeAwareInterpolatorImpl::GetKNNMatches_ParBody", ptr %7, i32 0, i32 1
  %9 = load ptr, ptr %5, align 8, !tbaa !3
  store ptr %9, ptr %8, align 8, !tbaa !160
  %10 = getelementptr inbounds nuw %"struct.cv::ximgproc::EdgeAwareInterpolatorImpl::GetKNNMatches_ParBody", ptr %7, i32 0, i32 2
  %11 = load i32, ptr %6, align 4, !tbaa !41
  store i32 %11, ptr %10, align 8, !tbaa !163
  %12 = getelementptr inbounds nuw %"struct.cv::ximgproc::EdgeAwareInterpolatorImpl::GetKNNMatches_ParBody", ptr %7, i32 0, i32 1
  %13 = load ptr, ptr %12, align 8, !tbaa !160
  %14 = getelementptr inbounds nuw %"class.cv::ximgproc::EdgeAwareInterpolatorImpl", ptr %13, i32 0, i32 1
  %15 = load i32, ptr %14, align 8, !tbaa !47
  %16 = sitofp i32 %15 to double
  %17 = getelementptr inbounds nuw %"struct.cv::ximgproc::EdgeAwareInterpolatorImpl::GetKNNMatches_ParBody", ptr %7, i32 0, i32 2
  %18 = load i32, ptr %17, align 8, !tbaa !163
  %19 = sitofp i32 %18 to double
  %20 = fdiv double %16, %19
  %21 = call double @llvm.ceil.f64(double %20)
  %22 = fptosi double %21 to i32
  %23 = getelementptr inbounds nuw %"struct.cv::ximgproc::EdgeAwareInterpolatorImpl::GetKNNMatches_ParBody", ptr %7, i32 0, i32 3
  store i32 %22, ptr %23, align 4, !tbaa !164
  ret void
}