; Function Attrs: mustprogress nofree norecurse nosync nounwind willreturn memory(argmem: readwrite) uwtable
define hidden void @_ZN2cv8ximgproc25EdgeAwareInterpolatorImpl21GetKNNMatches_ParBodyC2ERS1_i(ptr noundef nonnull writeonly align 8 captures(none) dereferenceable(24) initializes((0, 24)) %0, ptr noundef nonnull align 8 dereferenceable(480) %1, i32 noundef %2) unnamed_addr #14 align 2 {
  store ptr getelementptr inbounds nuw inrange(-16, 24) (i8, ptr @_ZTVN2cv8ximgproc25EdgeAwareInterpolatorImpl21GetKNNMatches_ParBodyE, i64 16), ptr %0, align 8, !tbaa !29
  %4 = getelementptr inbounds nuw i8, ptr %0, i64 8
  store ptr %1, ptr %4, align 8, !tbaa !108
  %5 = getelementptr inbounds nuw i8, ptr %0, i64 16
  store i32 %2, ptr %5, align 8, !tbaa !111
  %6 = getelementptr inbounds nuw i8, ptr %1, i64 8
  %7 = load i32, ptr %6, align 8, !tbaa !62
  %8 = sitofp i32 %7 to double
  %9 = sitofp i32 %2 to double
  %10 = fdiv double %8, %9
  %11 = tail call double @llvm.ceil.f64(double %10)
  %12 = fptosi double %11 to i32
  %13 = getelementptr inbounds nuw i8, ptr %0, i64 20
  store i32 %12, ptr %13, align 4, !tbaa !112
  ret void
}